; Function Attrs: nounwind uwtable
define internal void @DbTraceHandler(ptr noundef readonly captures(none) %0, ptr noundef %1) #0 {
  %3 = alloca %struct.Tcl_DString, align 8
  call void @llvm.lifetime.start.p0(i64 216, ptr nonnull %3) #14
  %4 = load ptr, ptr @tclStubsPtr, align 8, !tbaa !3
  %5 = getelementptr inbounds nuw i8, ptr %4, i64 992
  %6 = load ptr, ptr %5, align 8, !tbaa !122
  call void %6(ptr noundef nonnull %3) #14
  %7 = load ptr, ptr @tclStubsPtr, align 8, !tbaa !3
  %8 = getelementptr inbounds nuw i8, ptr %7, i64 952
  %9 = load ptr, ptr %8, align 8, !tbaa !123
  %10 = getelementptr inbounds nuw i8, ptr %0, i64 32
  %11 = load ptr, ptr %10, align 8, !tbaa !112
  %12 = call ptr %9(ptr noundef nonnull %3, ptr noundef %11, i32 noundef -1) #14
  %13 = load ptr, ptr @tclStubsPtr, align 8, !tbaa !3
  %14 = getelementptr inbounds nuw i8, ptr %13, i64 960
  %15 = load ptr, ptr %14, align 8, !tbaa !124
  %16 = call ptr %15(ptr noundef nonnull %3, ptr noundef %1) #14
  %17 = load ptr, ptr @tclStubsPtr, align 8, !tbaa !3
  %18 = getelementptr inbounds nuw i8, ptr %17, i64 1048
  %19 = load ptr, ptr %18, align 8, !tbaa !136
  %20 = getelementptr inbounds nuw i8, ptr %0, i64 8
  %21 = load ptr, ptr %20, align 8, !tbaa !39
  %22 = load ptr, ptr %3, align 8, !tbaa !126
  %23 = call i32 %19(ptr noundef %21, ptr noundef %22) #14
  %24 = load ptr, ptr @tclStubsPtr, align 8, !tbaa !3
  %25 = getelementptr inbounds nuw i8, ptr %24, i64 976
  %26 = load ptr, ptr %25, align 8, !tbaa !25
  call void %26(ptr noundef nonnull %3) #14
  %27 = load ptr, ptr @tclStubsPtr, align 8, !tbaa !3
  %28 = getelementptr inbounds nuw i8, ptr %27, i64 1752
  %29 = load ptr, ptr %28, align 8, !tbaa !97
  %30 = load ptr, ptr %20, align 8, !tbaa !39
  call void %29(ptr noundef %30) #14
  call void @llvm.lifetime.end.p0(i64 216, ptr nonnull %3) #14
  ret void
}